; Function Attrs: mustprogress nofree norecurse nosync nounwind willreturn memory(read, argmem: readwrite, inaccessiblemem: none) uwtable
define range(i32 -1094995529, 1) i32 @ff_amf_read_number(ptr noundef captures(none) %0, ptr noundef writeonly captures(none) %1) local_unnamed_addr #4 {
  %3 = getelementptr inbounds nuw i8, ptr %0, i64 8
  %4 = load ptr, ptr %3, align 8, !tbaa !10
  %5 = load ptr, ptr %0, align 8, !tbaa !12
  %6 = ptrtoint ptr %4 to i64
  %7 = ptrtoint ptr %5 to i64
  %8 = sub i64 %6, %7
  %9 = icmp slt i64 %8, 1
  br i1 %9, label %bytestream2_get_byte.exit.thread, label %bytestream2_get_byte.exit

bytestream2_get_byte.exit:                        ; preds = %2
  %10 = getelementptr inbounds nuw i8, ptr %5, i64 1
  store ptr %10, ptr %0, align 8, !tbaa !4
  %11 = load i8, ptr %5, align 1, !tbaa !9
  %.not = icmp eq i8 %11, 0
  br i1 %.not, label %bytestream2_get_byte.exit._crit_edge, label %21

bytestream2_get_byte.exit._crit_edge:             ; preds = %bytestream2_get_byte.exit
  %.pre = ptrtoint ptr %10 to i64
  br label %bytestream2_get_byte.exit.thread

bytestream2_get_byte.exit.thread:                 ; preds = %2, %bytestream2_get_byte.exit._crit_edge
  %.pre-phi = phi i64 [ %.pre, %bytestream2_get_byte.exit._crit_edge ], [ %6, %2 ]
  %12 = phi ptr [ %10, %bytestream2_get_byte.exit._crit_edge ], [ %4, %2 ]
  %13 = sub i64 %6, %.pre-phi
  %14 = icmp slt i64 %13, 8
  br i1 %14, label %15, label %16

15:                                               ; preds = %bytestream2_get_byte.exit.thread
  store ptr %4, ptr %0, align 8, !tbaa !12
  br label %bytestream2_get_be64.exit

16:                                               ; preds = %bytestream2_get_byte.exit.thread
  %17 = getelementptr inbounds nuw i8, ptr %12, i64 8
  store ptr %17, ptr %0, align 8, !tbaa !4
  %18 = load i64, ptr %12, align 1, !tbaa !9
  %19 = tail call noundef i64 @llvm.bswap.i64(i64 %18)
  %20 = bitcast i64 %19 to double
  br label %bytestream2_get_be64.exit

bytestream2_get_be64.exit:                        ; preds = %15, %16
  %.0.i4 = phi double [ 0.000000e+00, %15 ], [ %20, %16 ]
  store double %.0.i4, ptr %1, align 8, !tbaa !13
  br label %21

21:                                               ; preds = %bytestream2_get_byte.exit, %bytestream2_get_be64.exit
  %.0 = phi i32 [ 0, %bytestream2_get_be64.exit ], [ -1094995529, %bytestream2_get_byte.exit ]
  ret i32 %.0
}